; Function Attrs: mustprogress uwtable
define noundef zeroext i1 @_ZNK5Ipopt10GenTMatrix19HasValidNumbersImplEv(ptr nocapture noundef nonnull readonly align 8 dereferenceable(89) %0) unnamed_addr #0 align 2 {
  %2 = getelementptr inbounds i8, ptr %0, i64 72
  %3 = load ptr, ptr %2, align 8
  %4 = getelementptr inbounds i8, ptr %3, i64 20
  %5 = load i32, ptr %4, align 4
  %6 = getelementptr inbounds i8, ptr %0, i64 80
  %7 = load ptr, ptr %6, align 8
  %8 = tail call noundef double @_ZN5Ipopt10IpBlasAsumEiPKdi(i32 noundef %5, ptr noundef %7, i32 noundef 1)
  %9 = tail call noundef zeroext i1 @_ZN5Ipopt14IsFiniteNumberEd(double noundef %8)
  ret i1 %9
}